; Function Attrs: nounwind uwtable
define dso_local noundef ptr @list_insert_nth(ptr noundef %0, i32 noundef %1, ptr noundef %2) local_unnamed_addr #0 {
  %4 = icmp eq ptr %0, null
  br i1 %4, label %5, label %11

5:                                                ; preds = %3
  %6 = tail call ptr @palloc(i64 noundef 64) #9
  store i32 1, ptr %6, align 8
  %7 = getelementptr inbounds nuw i8, ptr %6, i64 4
  store i32 1, ptr %7, align 4
  %8 = getelementptr inbounds nuw i8, ptr %6, i64 8
  store i32 5, ptr %8, align 8
  %9 = getelementptr inbounds nuw i8, ptr %6, i64 24
  %10 = getelementptr inbounds nuw i8, ptr %6, i64 16
  store ptr %9, ptr %10, align 8
  store ptr %2, ptr %9, align 8
  br label %13

11:                                               ; preds = %3
  %12 = tail call fastcc ptr @insert_new_cell(ptr noundef %0, i32 noundef %1)
  store ptr %2, ptr %12, align 8
  br label %13

13:                                               ; preds = %11, %5
  %.0 = phi ptr [ %6, %5 ], [ %0, %11 ]
  ret ptr %.0
}